; ModuleID = '20/10.c'
source_filename = "20/10.c"
target datalayout = "e-m:e-p270:32:32-p271:32:32-p272:64:64-i64:64-f80:128-n8:16:32:64-S128"
target triple = "x86_64-pc-linux-gnu"

@.str = private unnamed_addr constant [6 x i8] c"%s %s\00", align 1
@.str.1 = private unnamed_addr constant [3 x i8] c"%c\00", align 1
@.str.2 = private unnamed_addr constant [3 x i8] c"%s\00", align 1
@.str.3 = private unnamed_addr constant [4 x i8] c"%s\0A\00", align 1

; Function Attrs: noinline nounwind uwtable
define dso_local void @body() #0 {
  %1 = alloca [11 x i8], align 1
  %2 = alloca [4 x i8], align 1
  %3 = alloca i8, align 1
  %4 = alloca i32, align 4
  %5 = alloca i32, align 4
  %6 = alloca i32, align 4
  %7 = alloca i8*, align 8
  store i32 0, i32* %4, align 4
  store i32 0, i32* %6, align 4
  %8 = getelementptr inbounds [11 x i8], [11 x i8]* %1, i64 0, i64 0
  %9 = getelementptr inbounds [4 x i8], [4 x i8]* %2, i64 0, i64 0
  %10 = call i32 (i8*, ...) @__isoc99_scanf(i8* getelementptr inbounds ([6 x i8], [6 x i8]* @.str, i64 0, i64 0), i8* %8, i8* %9)
  %11 = getelementptr inbounds [11 x i8], [11 x i8]* %1, i64 0, i64 0
  %12 = getelementptr inbounds [11 x i8], [11 x i8]* %1, i64 0, i64 0
  %13 = call i64 @strlen(i8* %12) #3
  %14 = getelementptr inbounds i8, i8* %11, i64 %13
  %15 = getelementptr inbounds i8, i8* %14, i64 -1
  %16 = load i8, i8* %15, align 1
  store i8 %16, i8* %3, align 1
  %17 = getelementptr inbounds [11 x i8], [11 x i8]* %1, i64 0, i64 0
  %18 = call i64 @strlen(i8* %17) #3
  %19 = trunc i64 %18 to i32
  store i32 %19, i32* %5, align 4
  %20 = getelementptr inbounds [11 x i8], [11 x i8]* %1, i64 0, i64 0
  %21 = call i64 @strlen(i8* %20) #3
  %22 = sub i64 %21, 1
  %23 = trunc i64 %22 to i32
  store i32 %23, i32* %4, align 4
  br label %24

24:                                               ; preds = %45, %0
  %25 = load i32, i32* %4, align 4
  %26 = icmp sgt i32 %25, -1
  br i1 %26, label %27, label %48

27:                                               ; preds = %24
  %28 = load i32, i32* %4, align 4
  %29 = sext i32 %28 to i64
  %30 = getelementptr inbounds [11 x i8], [11 x i8]* %1, i64 0, i64 %29
  %31 = load i8, i8* %30, align 1
  %32 = sext i8 %31 to i32
  %33 = load i8, i8* %3, align 1
  %34 = sext i8 %33 to i32
  %35 = icmp sge i32 %32, %34
  br i1 %35, label %36, label %44

36:                                               ; preds = %27
  %37 = load i32, i32* %4, align 4
  %38 = add nsw i32 %37, 1
  store i32 %38, i32* %5, align 4
  %39 = getelementptr inbounds [11 x i8], [11 x i8]* %1, i64 0, i64 0
  %40 = load i32, i32* %4, align 4
  %41 = sext i32 %40 to i64
  %42 = getelementptr inbounds i8, i8* %39, i64 %41
  %43 = load i8, i8* %42, align 1
  store i8 %43, i8* %3, align 1
  br label %44

44:                                               ; preds = %36, %27
  br label %45

45:                                               ; preds = %44
  %46 = load i32, i32* %4, align 4
  %47 = add nsw i32 %46, -1
  store i32 %47, i32* %4, align 4
  br label %24

48:                                               ; preds = %24
  %49 = getelementptr inbounds [11 x i8], [11 x i8]* %1, i64 0, i64 0
  store i8* %49, i8** %7, align 8
  %50 = getelementptr inbounds [11 x i8], [11 x i8]* %1, i64 0, i64 0
  %51 = call i64 @strlen(i8* %50) #3
  %52 = icmp uge i64 %51, 11
  br i1 %52, label %57, label %53

53:                                               ; preds = %48
  %54 = getelementptr inbounds [4 x i8], [4 x i8]* %2, i64 0, i64 0
  %55 = call i64 @strlen(i8* %54) #3
  %56 = icmp uge i64 %55, 4
  br i1 %56, label %57, label %58

57:                                               ; preds = %53, %48
  br label %82

58:                                               ; preds = %53
  store i32 0, i32* %4, align 4
  br label %59

59:                                               ; preds = %71, %58
  %60 = load i32, i32* %4, align 4
  %61 = load i32, i32* %5, align 4
  %62 = icmp slt i32 %60, %61
  br i1 %62, label %63, label %74

63:                                               ; preds = %59
  %64 = load i8*, i8** %7, align 8
  %65 = load i32, i32* %4, align 4
  %66 = sext i32 %65 to i64
  %67 = getelementptr inbounds i8, i8* %64, i64 %66
  %68 = load i8, i8* %67, align 1
  %69 = sext i8 %68 to i32
  %70 = call i32 (i8*, ...) @printf(i8* getelementptr inbounds ([3 x i8], [3 x i8]* @.str.1, i64 0, i64 0), i32 %69)
  br label %71

71:                                               ; preds = %63
  %72 = load i32, i32* %4, align 4
  %73 = add nsw i32 %72, 1
  store i32 %73, i32* %4, align 4
  br label %59

74:                                               ; preds = %59
  %75 = getelementptr inbounds [4 x i8], [4 x i8]* %2, i64 0, i64 0
  %76 = call i32 (i8*, ...) @printf(i8* getelementptr inbounds ([3 x i8], [3 x i8]* @.str.2, i64 0, i64 0), i8* %75)
  %77 = load i8*, i8** %7, align 8
  %78 = load i32, i32* %4, align 4
  %79 = sext i32 %78 to i64
  %80 = getelementptr inbounds i8, i8* %77, i64 %79
  %81 = call i32 (i8*, ...) @printf(i8* getelementptr inbounds ([4 x i8], [4 x i8]* @.str.3, i64 0, i64 0), i8* %80)
  call void @body()
  br label %82

82:                                               ; preds = %74, %57
  ret void
}

declare dso_local i32 @__isoc99_scanf(i8*, ...) #1

; Function Attrs: nounwind readonly
declare dso_local i64 @strlen(i8*) #2

declare dso_local i32 @printf(i8*, ...) #1

; Function Attrs: noinline nounwind uwtable
define dso_local void @main() #0 {
  call void @body()
  ret void
}


!llvm.module.flags = !{!0}
!llvm.ident = !{!1}

!0 = !{i32 1, !"wchar_size", i32 4}
!1 = !{!"clang version 10.0.0-4ubuntu1 "}
